target datalayout = "e-m:e-p270:32:32-p271:32:32-p272:64:64-i64:64-i128:128-f80:128-n8:16:32:64-S128"
target triple = "x86_64-pc-linux-gnu"

%class.AstNode = type { ptr, ptr, ptr, ptr, ptr, ptr, ptr, ptr, %class.VNType, %struct.anon, i8, i32, ptr, ptr, ptr, ptr, %class.VNUser, i32, i32, %class.VNUser, %class.VNUser, i32, i32, %class.VNUser }
%class.VNType = type { i16 }
%struct.anon = type { i8 }
%class.VNUser = type { %union.anon.11 }
%union.anon.11 = type { ptr }
%class.V3GraphVertex = type { ptr, %class.V3ListLinks, %class.V3List.12, %class.V3List.13, double, i32, i32, %union.anon.14 }
%class.V3ListLinks = type { ptr, ptr }
%class.V3List.12 = type { ptr, ptr }
%class.V3List.13 = type { ptr, ptr }
%union.anon.14 = type { ptr }
%"class.V3Sched::(anonymous namespace)::SchedAcyclicVarVertex" = type { %class.V3GraphVertex, ptr }
%class.AstVarScope = type { %class.AstNode, i8, ptr, ptr }
%class.AstNodeDType = type <{ %class.AstNode, i32, i32, %class.VSigning, i8, [6 x i8] }>
%class.VSigning = type { i8 }
%"struct.std::pair.152" = type <{ ptr, i32, [4 x i8] }>

; Function Attrs: mustprogress nounwind uwtable
define linkonce_odr dso_local noundef i32 @_ZNK12AstNodeDType5widthEv(ptr noundef nonnull align 8 dereferenceable(162) %0) #6 comdat align 2 {
  %2 = alloca ptr, align 8
  store ptr %0, ptr %2, align 8, !tbaa !313
  %3 = load ptr, ptr %2, align 8
  %4 = getelementptr inbounds nuw %class.AstNodeDType, ptr %3, i32 0, i32 1
  %5 = load i32, ptr %4, align 8, !tbaa !314
  ret i32 %5
}

; Function Attrs: mustprogress nounwind uwtable
define linkonce_odr dso_local noundef ptr @_ZNK7AstNode6dtypepEv(ptr noundef nonnull align 8 dereferenceable(152) %0) #6 comdat align 2 {
  %2 = alloca ptr, align 8
  store ptr %0, ptr %2, align 8, !tbaa !22
  %3 = load ptr, ptr %2, align 8
  %4 = getelementptr inbounds nuw %class.AstNode, ptr %3, i32 0, i32 12
  %5 = load ptr, ptr %4, align 8, !tbaa !312
  ret ptr %5
}

; Function Attrs: mustprogress nounwind uwtable
define linkonce_odr dso_local noundef ptr @_ZNK11AstVarScope4varpEv(ptr noundef nonnull align 8 dereferenceable(176) %0) #6 comdat align 2 {
  %2 = alloca ptr, align 8
  store ptr %0, ptr %2, align 8, !tbaa !69
  %3 = load ptr, ptr %2, align 8
  %4 = getelementptr inbounds nuw %class.AstVarScope, ptr %3, i32 0, i32 3
  %5 = load ptr, ptr %4, align 8, !tbaa !306
  ret ptr %5
}

; Function Attrs: inlinehint mustprogress uwtable
define linkonce_odr dso_local noundef i32 @_ZNK7AstNode5widthEv(ptr noundef nonnull align 8 dereferenceable(152) %0) #9 comdat align 2 {
  %2 = alloca ptr, align 8
  store ptr %0, ptr %2, align 8, !tbaa !22
  %3 = load ptr, ptr %2, align 8
  %4 = call noundef ptr @_ZNK7AstNode6dtypepEv(ptr noundef nonnull align 8 dereferenceable(152) %3)
  %5 = icmp ne ptr %4, null
  br i1 %5, label %6, label %9

6:                                                ; preds = %1
  %7 = call noundef ptr @_ZNK7AstNode6dtypepEv(ptr noundef nonnull align 8 dereferenceable(152) %3)
  %8 = call noundef i32 @_ZNK12AstNodeDType5widthEv(ptr noundef nonnull align 8 dereferenceable(162) %7)
  br label %10

9:                                                ; preds = %1
  br label %10

10:                                               ; preds = %9, %6
  %11 = phi i32 [ %8, %6 ], [ 0, %9 ]
  ret i32 %11
}

; Function Attrs: mustprogress nounwind uwtable
define internal noundef ptr @_ZNK7V3Sched12_GLOBAL__N_121SchedAcyclicVarVertex4varpEv(ptr noundef nonnull align 8 dereferenceable(88) %0) #6 align 2 {
  %2 = alloca ptr, align 8
  store ptr %0, ptr %2, align 8, !tbaa !61
  %3 = load ptr, ptr %2, align 8
  %4 = getelementptr inbounds nuw %"class.V3Sched::(anonymous namespace)::SchedAcyclicVarVertex", ptr %3, i32 0, i32 1
  %5 = load ptr, ptr %4, align 8, !tbaa !132
  %6 = call noundef ptr @_ZNK11AstVarScope4varpEv(ptr noundef nonnull align 8 dereferenceable(176) %5)
  ret ptr %6
}

; Function Attrs: inlinehint mustprogress uwtable
define internal noundef zeroext i1 @"_ZZN7V3Sched12_GLOBAL__N_114reportLoopVarsEPNS0_5GraphEPNS0_21SchedAcyclicVarVertexEENK3$_0clERKSt4pairIS4_jES9_"(ptr noundef nonnull align 1 dereferenceable(1) %0, ptr noundef nonnull align 8 dereferenceable(12) %1, ptr noundef nonnull align 8 dereferenceable(12) %2) #9 align 2 {
  %4 = alloca ptr, align 8
  %5 = alloca ptr, align 8
  %6 = alloca ptr, align 8
  store ptr %0, ptr %4, align 8, !tbaa !26
  store ptr %1, ptr %5, align 8, !tbaa !675
  store ptr %2, ptr %6, align 8, !tbaa !675
  %7 = load ptr, ptr %5, align 8, !tbaa !675
  %8 = getelementptr inbounds nuw %"struct.std::pair.152", ptr %7, i32 0, i32 0
  %9 = load ptr, ptr %8, align 8, !tbaa !677
  %10 = call noundef ptr @_ZNK7V3Sched12_GLOBAL__N_121SchedAcyclicVarVertex4varpEv(ptr noundef nonnull align 8 dereferenceable(88) %9)
  %11 = call noundef i32 @_ZNK7AstNode5widthEv(ptr noundef nonnull align 8 dereferenceable(152) %10)
  %12 = load ptr, ptr %6, align 8, !tbaa !675
  %13 = getelementptr inbounds nuw %"struct.std::pair.152", ptr %12, i32 0, i32 0
  %14 = load ptr, ptr %13, align 8, !tbaa !677
  %15 = call noundef ptr @_ZNK7V3Sched12_GLOBAL__N_121SchedAcyclicVarVertex4varpEv(ptr noundef nonnull align 8 dereferenceable(88) %14)
  %16 = call noundef i32 @_ZNK7AstNode5widthEv(ptr noundef nonnull align 8 dereferenceable(152) %15)
  %17 = icmp sgt i32 %11, %16
  ret i1 %17
}

; Function Attrs: mustprogress nounwind uwtable
define linkonce_odr dso_local noundef ptr @_ZNKSt9_Any_data9_M_accessEv(ptr noundef nonnull align 8 dereferenceable(16) %0) #6 comdat align 2 {
  %2 = alloca ptr, align 8
  store ptr %0, ptr %2, align 8, !tbaa !809
  %3 = load ptr, ptr %2, align 8
  %4 = getelementptr inbounds [16 x i8], ptr %3, i64 0, i64 0
  ret ptr %4
}

; Function Attrs: mustprogress uwtable
define internal noundef zeroext i1 @"_ZSt13__invoke_implIbRZN7V3Sched12_GLOBAL__N_114reportLoopVarsEPNS1_5GraphEPNS1_21SchedAcyclicVarVertexEE3$_0JRKSt4pairIS5_jESB_EET_St14__invoke_otherOT0_DpOT1_"(ptr noundef nonnull align 1 dereferenceable(1) %0, ptr noundef nonnull align 8 dereferenceable(12) %1, ptr noundef nonnull align 8 dereferenceable(12) %2) #4 {
  %4 = alloca ptr, align 8
  %5 = alloca ptr, align 8
  %6 = alloca ptr, align 8
  store ptr %0, ptr %4, align 8, !tbaa !26
  store ptr %1, ptr %5, align 8, !tbaa !675
  store ptr %2, ptr %6, align 8, !tbaa !675
  %7 = load ptr, ptr %4, align 8, !tbaa !26
  %8 = load ptr, ptr %5, align 8, !tbaa !675
  %9 = load ptr, ptr %6, align 8, !tbaa !675
  %10 = call noundef zeroext i1 @"_ZZN7V3Sched12_GLOBAL__N_114reportLoopVarsEPNS0_5GraphEPNS0_21SchedAcyclicVarVertexEENK3$_0clERKSt4pairIS4_jES9_"(ptr noundef nonnull align 1 dereferenceable(1) %7, ptr noundef nonnull align 8 dereferenceable(12) %8, ptr noundef nonnull align 8 dereferenceable(12) %9)
  ret i1 %10
}

; Function Attrs: mustprogress nounwind uwtable
define internal noundef nonnull align 1 dereferenceable(1) ptr @"_ZNKSt9_Any_data9_M_accessIZN7V3Sched12_GLOBAL__N_114reportLoopVarsEPNS2_5GraphEPNS2_21SchedAcyclicVarVertexEE3$_0EERKT_v"(ptr noundef nonnull align 8 dereferenceable(16) %0) #6 align 2 {
  %2 = alloca ptr, align 8
  store ptr %0, ptr %2, align 8, !tbaa !809
  %3 = load ptr, ptr %2, align 8
  %4 = call noundef ptr @_ZNKSt9_Any_data9_M_accessEv(ptr noundef nonnull align 8 dereferenceable(16) %3) #3
  ret ptr %4
}

; Function Attrs: mustprogress uwtable
define internal noundef zeroext i1 @"_ZSt10__invoke_rIbRZN7V3Sched12_GLOBAL__N_114reportLoopVarsEPNS1_5GraphEPNS1_21SchedAcyclicVarVertexEE3$_0JRKSt4pairIS5_jESB_EENSt9enable_ifIX16is_invocable_r_vIT_T0_DpT1_EESD_E4typeEOSE_DpOSF_"(ptr noundef nonnull align 1 dereferenceable(1) %0, ptr noundef nonnull align 8 dereferenceable(12) %1, ptr noundef nonnull align 8 dereferenceable(12) %2) #4 {
  %4 = alloca ptr, align 8
  %5 = alloca ptr, align 8
  %6 = alloca ptr, align 8
  store ptr %0, ptr %4, align 8, !tbaa !26
  store ptr %1, ptr %5, align 8, !tbaa !675
  store ptr %2, ptr %6, align 8, !tbaa !675
  %7 = load ptr, ptr %4, align 8, !tbaa !26
  %8 = load ptr, ptr %5, align 8, !tbaa !675
  %9 = load ptr, ptr %6, align 8, !tbaa !675
  %10 = call noundef zeroext i1 @"_ZSt13__invoke_implIbRZN7V3Sched12_GLOBAL__N_114reportLoopVarsEPNS1_5GraphEPNS1_21SchedAcyclicVarVertexEE3$_0JRKSt4pairIS5_jESB_EET_St14__invoke_otherOT0_DpOT1_"(ptr noundef nonnull align 1 dereferenceable(1) %7, ptr noundef nonnull align 8 dereferenceable(12) %8, ptr noundef nonnull align 8 dereferenceable(12) %9)
  ret i1 %10
}

; Function Attrs: mustprogress nounwind uwtable
define internal noundef ptr @"_ZNSt14_Function_base13_Base_managerIZN7V3Sched12_GLOBAL__N_114reportLoopVarsEPNS2_5GraphEPNS2_21SchedAcyclicVarVertexEE3$_0E14_M_get_pointerERKSt9_Any_data"(ptr noundef nonnull align 8 dereferenceable(16) %0) #6 align 2 {
  %2 = alloca ptr, align 8
  %3 = alloca ptr, align 8
  store ptr %0, ptr %2, align 8, !tbaa !809
  call void @llvm.lifetime.start.p0(i64 8, ptr %3) #3
  %4 = load ptr, ptr %2, align 8, !tbaa !809
  %5 = call noundef nonnull align 1 dereferenceable(1) ptr @"_ZNKSt9_Any_data9_M_accessIZN7V3Sched12_GLOBAL__N_114reportLoopVarsEPNS2_5GraphEPNS2_21SchedAcyclicVarVertexEE3$_0EERKT_v"(ptr noundef nonnull align 8 dereferenceable(16) %4) #3
  store ptr %5, ptr %3, align 8, !tbaa !26
  %6 = load ptr, ptr %3, align 8, !tbaa !26
  call void @llvm.lifetime.end.p0(i64 8, ptr %3) #3
  ret ptr %6
}

; Function Attrs: mustprogress uwtable
define internal noundef zeroext i1 @"_ZNSt17_Function_handlerIFbRKSt4pairIPN7V3Sched12_GLOBAL__N_121SchedAcyclicVarVertexEjES7_EZNS2_14reportLoopVarsEPNS2_5GraphES4_E3$_0E9_M_invokeERKSt9_Any_dataS7_S7_"(ptr noundef nonnull align 8 dereferenceable(16) %0, ptr noundef nonnull align 8 dereferenceable(12) %1, ptr noundef nonnull align 8 dereferenceable(12) %2) #4 align 2 {
  %4 = alloca ptr, align 8
  %5 = alloca ptr, align 8
  %6 = alloca ptr, align 8
  store ptr %0, ptr %4, align 8, !tbaa !809
  store ptr %1, ptr %5, align 8, !tbaa !675
  store ptr %2, ptr %6, align 8, !tbaa !675
  %7 = load ptr, ptr %4, align 8, !tbaa !809
  %8 = call noundef ptr @"_ZNSt14_Function_base13_Base_managerIZN7V3Sched12_GLOBAL__N_114reportLoopVarsEPNS2_5GraphEPNS2_21SchedAcyclicVarVertexEE3$_0E14_M_get_pointerERKSt9_Any_data"(ptr noundef nonnull align 8 dereferenceable(16) %7) #3
  %9 = load ptr, ptr %5, align 8, !tbaa !675
  %10 = load ptr, ptr %6, align 8, !tbaa !675
  %11 = call noundef zeroext i1 @"_ZSt10__invoke_rIbRZN7V3Sched12_GLOBAL__N_114reportLoopVarsEPNS1_5GraphEPNS1_21SchedAcyclicVarVertexEE3$_0JRKSt4pairIS5_jESB_EENSt9enable_ifIX16is_invocable_r_vIT_T0_DpT1_EESD_E4typeEOSE_DpOSF_"(ptr noundef nonnull align 1 dereferenceable(1) %8, ptr noundef nonnull align 8 dereferenceable(12) %9, ptr noundef nonnull align 8 dereferenceable(12) %10)
  ret i1 %11
}