; Function Attrs: mustprogress nofree norecurse nosync nounwind willreturn memory(read, inaccessiblemem: none) uwtable
define internal noundef zeroext i1 @"_ZNSt17_Function_handlerIFbRKSt4pairIPN7V3Sched12_GLOBAL__N_121SchedAcyclicVarVertexEjES7_EZNS2_14reportLoopVarsEPNS2_5GraphES4_E3$_0E9_M_invokeERKSt9_Any_dataS7_S7_"(ptr nonnull readnone align 8 captures(none) %0, ptr noundef nonnull readonly align 8 captures(none) dereferenceable(12) %1, ptr noundef nonnull readonly align 8 captures(none) dereferenceable(12) %2) #24 align 2 {
  %.val = load ptr, ptr %1, align 8, !tbaa !356
  %.val3 = load ptr, ptr %2, align 8
  %4 = getelementptr i8, ptr %.val, i64 80
  %.val.val = load ptr, ptr %4, align 8, !tbaa !85
  %5 = getelementptr i8, ptr %.val.val, i64 168
  %.val.val.val = load ptr, ptr %5, align 8, !tbaa !201
  %6 = getelementptr i8, ptr %.val.val.val, i64 72
  %.val.val.val.val = load ptr, ptr %6, align 8, !tbaa !217
  %.not.i.i.i.i = icmp eq ptr %.val.val.val.val, null
  br i1 %.not.i.i.i.i, label %_ZNK7AstNode5widthEv.exit.i.i.i, label %7

7:                                                ; preds = %3
  %8 = getelementptr inbounds nuw i8, ptr %.val.val.val.val, i64 152
  %9 = load i32, ptr %8, align 8, !tbaa !251
  br label %_ZNK7AstNode5widthEv.exit.i.i.i

_ZNK7AstNode5widthEv.exit.i.i.i:                  ; preds = %7, %3
  %10 = phi i32 [ %9, %7 ], [ 0, %3 ]
  %11 = getelementptr i8, ptr %.val3, i64 80
  %.val.i.i.i = load ptr, ptr %11, align 8, !tbaa !85
  %12 = getelementptr i8, ptr %.val.i.i.i, i64 168
  %.val.val.i.i.i = load ptr, ptr %12, align 8, !tbaa !201
  %13 = getelementptr inbounds nuw i8, ptr %.val.val.i.i.i, i64 72
  %14 = load ptr, ptr %13, align 8, !tbaa !217
  %.not.i3.i.i.i = icmp eq ptr %14, null
  br i1 %.not.i3.i.i.i, label %"_ZSt10__invoke_rIbRZN7V3Sched12_GLOBAL__N_114reportLoopVarsEPNS1_5GraphEPNS1_21SchedAcyclicVarVertexEE3$_0JRKSt4pairIS5_jESB_EENSt9enable_ifIX16is_invocable_r_vIT_T0_DpT1_EESD_E4typeEOSE_DpOSF_.exit", label %15

15:                                               ; preds = %_ZNK7AstNode5widthEv.exit.i.i.i
  %16 = getelementptr inbounds nuw i8, ptr %14, i64 152
  %17 = load i32, ptr %16, align 8, !tbaa !251
  br label %"_ZSt10__invoke_rIbRZN7V3Sched12_GLOBAL__N_114reportLoopVarsEPNS1_5GraphEPNS1_21SchedAcyclicVarVertexEE3$_0JRKSt4pairIS5_jESB_EENSt9enable_ifIX16is_invocable_r_vIT_T0_DpT1_EESD_E4typeEOSE_DpOSF_.exit"

"_ZSt10__invoke_rIbRZN7V3Sched12_GLOBAL__N_114reportLoopVarsEPNS1_5GraphEPNS1_21SchedAcyclicVarVertexEE3$_0JRKSt4pairIS5_jESB_EENSt9enable_ifIX16is_invocable_r_vIT_T0_DpT1_EESD_E4typeEOSE_DpOSF_.exit": ; preds = %_ZNK7AstNode5widthEv.exit.i.i.i, %15
  %18 = phi i32 [ %17, %15 ], [ 0, %_ZNK7AstNode5widthEv.exit.i.i.i ]
  %19 = icmp sgt i32 %10, %18
  ret i1 %19
}